target datalayout = "e-m:e-p270:32:32-p271:32:32-p272:64:64-i64:64-i128:128-f80:128-n8:16:32:64-S128"
target triple = "x86_64-pc-linux-gnu"

%struct.expert_field = type { i32, i32 }
%struct._packet_info = type { ptr, ptr, i32, i32, %struct.nstime_t, %struct.nstime_t, %struct.nstime_t, i8, ptr, ptr, ptr, ptr, %struct._address, %struct._address, %struct._address, %struct._address, %struct._address, %struct._address, i32, ptr, i8, [3 x i8], %struct.anon, i32, i32, i32, i32, ptr, i8, ptr, ptr, i16, i16, i32, i32, i16, i32, i32, ptr, ptr, ptr, i8, i8, i16, i16, i16, i32, i16, i16, ptr, ptr, ptr, ptr, ptr, i32, i32 }
%struct.nstime_t = type { i64, i32 }
%struct._address = type { i32, i32, ptr, ptr }
%struct.anon = type { i8, [3 x i8] }

@hf_knxip_reserved = internal global i32 0, align 4
@hf_knxip_reset_command = internal global i32 0, align 4
@ei_knxip_error = hidden global %struct.expert_field zeroinitializer, align 4
@.str.231 = private unnamed_addr constant [3 x i8] c"? \00", align 1
@.str.253 = private unnamed_addr constant [5 x i8] c", %s\00", align 1
@.str.266 = private unnamed_addr constant [4 x i8] c"???\00", align 1
@.str.317 = private unnamed_addr constant [23 x i8] c"Expected: 0x01 or 0x02\00", align 1
@.str.332 = private unnamed_addr constant [6 x i8] c" = %s\00", align 1
@.str.408 = private unnamed_addr constant [28 x i8] c"? Reserved: expected 1 byte\00", align 1
@.str.409 = private unnamed_addr constant [15 x i8] c"Expected: 0x00\00", align 1
@.str.438 = private unnamed_addr constant [8 x i8] c"Restart\00", align 1
@.str.439 = private unnamed_addr constant [13 x i8] c"Master Reset\00", align 1
@.str.440 = private unnamed_addr constant [38 x i8] c"? Command, Reserved: expected 2 bytes\00", align 1

; Function Attrs: null_pointer_is_valid sspstrong uwtable
define internal ptr @knxip_tree_add_reserved(ptr noundef %0, ptr noundef %1, i32 noundef %2, ptr noundef %3, ptr noundef %4) #0 {
  %6 = alloca ptr, align 8
  %7 = alloca ptr, align 8
  %8 = alloca i32, align 4
  %9 = alloca ptr, align 8
  %10 = alloca ptr, align 8
  %11 = alloca ptr, align 8
  store ptr %0, ptr %6, align 8
  store ptr %1, ptr %7, align 8
  store i32 %2, ptr %8, align 4
  store ptr %3, ptr %9, align 8
  store ptr %4, ptr %10, align 8
  call void @llvm.lifetime.start.p0(i64 8, ptr %11) #9
  %12 = load ptr, ptr %6, align 8
  %13 = load i32, ptr @hf_knxip_reserved, align 4
  %14 = load ptr, ptr %7, align 8
  %15 = load i32, ptr %8, align 4
  %16 = call ptr @proto_tree_add_item(ptr noundef %12, i32 noundef %13, ptr noundef %14, i32 noundef %15, i32 noundef 1, i32 noundef 0)
  store ptr %16, ptr %11, align 8
  %17 = load ptr, ptr %7, align 8
  %18 = load i32, ptr %8, align 4
  %19 = call zeroext i8 @tvb_get_uint8(ptr noundef %17, i32 noundef %18)
  %20 = icmp ne i8 %19, 0
  br i1 %20, label %21, label %31

21:                                               ; preds = %5
  %22 = load ptr, ptr %11, align 8
  call void (ptr, ptr, ...) @proto_item_prepend_text(ptr noundef %22, ptr noundef @.str.231)
  %23 = load ptr, ptr %9, align 8
  %24 = load ptr, ptr %11, align 8
  %25 = call ptr (ptr, ptr, ptr, ptr, ...) @expert_add_info_format(ptr noundef %23, ptr noundef %24, ptr noundef @ei_knxip_error, ptr noundef @.str.409)
  %26 = load ptr, ptr %10, align 8
  %27 = icmp ne ptr %26, null
  br i1 %27, label %28, label %30

28:                                               ; preds = %21
  %29 = load ptr, ptr %10, align 8
  store i8 0, ptr %29, align 1
  br label %30

30:                                               ; preds = %28, %21
  br label %31

31:                                               ; preds = %30, %5
  %32 = load ptr, ptr %11, align 8
  call void @llvm.lifetime.end.p0(i64 8, ptr %11) #9
  ret ptr %32
}

; Function Attrs: null_pointer_is_valid sspstrong uwtable
define internal zeroext i8 @dissect_resetter(ptr noundef %0, ptr noundef %1, ptr noundef %2, ptr noundef %3, ptr noundef %4) #0 {
  %6 = alloca ptr, align 8
  %7 = alloca ptr, align 8
  %8 = alloca ptr, align 8
  %9 = alloca ptr, align 8
  %10 = alloca ptr, align 8
  %11 = alloca i8, align 1
  %12 = alloca i32, align 4
  %13 = alloca i32, align 4
  %14 = alloca i8, align 1
  %15 = alloca i8, align 1
  %16 = alloca ptr, align 8
  %17 = alloca ptr, align 8
  %18 = alloca ptr, align 8
  store ptr %0, ptr %6, align 8
  store ptr %1, ptr %7, align 8
  store ptr %2, ptr %8, align 8
  store ptr %3, ptr %9, align 8
  store ptr %4, ptr %10, align 8
  call void @llvm.lifetime.start.p0(i64 1, ptr %11) #9
  store i8 0, ptr %11, align 1
  call void @llvm.lifetime.start.p0(i64 4, ptr %12) #9
  %19 = load ptr, ptr %10, align 8
  %20 = load i32, ptr %19, align 4
  store i32 %20, ptr %12, align 4
  call void @llvm.lifetime.start.p0(i64 4, ptr %13) #9
  %21 = load ptr, ptr %6, align 8
  %22 = load i32, ptr %12, align 4
  %23 = call i32 @tvb_captured_length_remaining(ptr noundef %21, i32 noundef %22)
  store i32 %23, ptr %13, align 4
  call void @llvm.lifetime.start.p0(i64 1, ptr %14) #9
  %24 = load i32, ptr %13, align 4
  %25 = icmp ult i32 %24, 2
  br i1 %25, label %26, label %30

26:                                               ; preds = %5
  %27 = load i32, ptr %13, align 4
  %28 = trunc i32 %27 to i8
  %29 = zext i8 %28 to i32
  br label %31

30:                                               ; preds = %5
  br label %31

31:                                               ; preds = %30, %26
  %32 = phi i32 [ %29, %26 ], [ 2, %30 ]
  %33 = trunc i32 %32 to i8
  store i8 %33, ptr %14, align 1
  call void @llvm.lifetime.start.p0(i64 1, ptr %15) #9
  %34 = load i8, ptr %14, align 1
  %35 = zext i8 %34 to i32
  %36 = icmp sle i32 %35, 0
  br i1 %36, label %37, label %38

37:                                               ; preds = %31
  br label %43

38:                                               ; preds = %31
  %39 = load ptr, ptr %6, align 8
  %40 = load i32, ptr %12, align 4
  %41 = call zeroext i8 @tvb_get_uint8(ptr noundef %39, i32 noundef %40)
  %42 = zext i8 %41 to i32
  br label %43

43:                                               ; preds = %38, %37
  %44 = phi i32 [ 0, %37 ], [ %42, %38 ]
  %45 = trunc i32 %44 to i8
  store i8 %45, ptr %15, align 1
  call void @llvm.lifetime.start.p0(i64 8, ptr %16) #9
  %46 = load i8, ptr %15, align 1
  %47 = zext i8 %46 to i32
  %48 = icmp eq i32 %47, 1
  br i1 %48, label %49, label %50

49:                                               ; preds = %43
  br label %55

50:                                               ; preds = %43
  %51 = load i8, ptr %15, align 1
  %52 = zext i8 %51 to i32
  %53 = icmp eq i32 %52, 2
  %54 = select i1 %53, ptr @.str.439, ptr null
  br label %55

55:                                               ; preds = %50, %49
  %56 = phi ptr [ @.str.438, %49 ], [ %54, %50 ]
  store ptr %56, ptr %16, align 8
  call void @llvm.lifetime.start.p0(i64 8, ptr %17) #9
  %57 = load ptr, ptr %16, align 8
  %58 = icmp ne ptr %57, null
  br i1 %58, label %59, label %61

59:                                               ; preds = %55
  %60 = load ptr, ptr %16, align 8
  br label %62

61:                                               ; preds = %55
  br label %62

62:                                               ; preds = %61, %59
  %63 = phi ptr [ %60, %59 ], [ @.str.266, %61 ]
  store ptr %63, ptr %17, align 8
  call void @llvm.lifetime.start.p0(i64 8, ptr %18) #9
  %64 = load i8, ptr %14, align 1
  %65 = zext i8 %64 to i32
  %66 = icmp sle i32 %65, 0
  br i1 %66, label %67, label %73

67:                                               ; preds = %62
  %68 = load ptr, ptr %9, align 8
  %69 = load ptr, ptr %7, align 8
  %70 = load ptr, ptr %6, align 8
  %71 = load i32, ptr %12, align 4
  %72 = call ptr (ptr, ptr, ptr, ptr, i32, i32, ptr, ...) @proto_tree_add_expert_format(ptr noundef %68, ptr noundef %69, ptr noundef @ei_knxip_error, ptr noundef %70, i32 noundef %71, i32 noundef 0, ptr noundef @.str.440)
  br label %106

73:                                               ; preds = %62
  %74 = load ptr, ptr %9, align 8
  %75 = load i32, ptr @hf_knxip_reset_command, align 4
  %76 = load ptr, ptr %6, align 8
  %77 = load i32, ptr %12, align 4
  %78 = call ptr @proto_tree_add_item(ptr noundef %74, i32 noundef %75, ptr noundef %76, i32 noundef %77, i32 noundef 1, i32 noundef 0)
  store ptr %78, ptr %18, align 8
  %79 = load ptr, ptr %18, align 8
  %80 = load ptr, ptr %17, align 8
  call void (ptr, ptr, ...) @proto_item_append_text(ptr noundef %79, ptr noundef @.str.332, ptr noundef %80)
  %81 = load ptr, ptr %16, align 8
  %82 = icmp ne ptr %81, null
  br i1 %82, label %87, label %83

83:                                               ; preds = %73
  %84 = load ptr, ptr %7, align 8
  %85 = load ptr, ptr %18, align 8
  %86 = call ptr (ptr, ptr, ptr, ptr, ...) @expert_add_info_format(ptr noundef %84, ptr noundef %85, ptr noundef @ei_knxip_error, ptr noundef @.str.317)
  br label %88

87:                                               ; preds = %73
  store i8 1, ptr %11, align 1
  br label %88

88:                                               ; preds = %87, %83
  %89 = load i8, ptr %14, align 1
  %90 = zext i8 %89 to i32
  %91 = icmp ne i32 %90, 2
  br i1 %91, label %92, label %98

92:                                               ; preds = %88
  %93 = load ptr, ptr %9, align 8
  %94 = load ptr, ptr %7, align 8
  %95 = load ptr, ptr %6, align 8
  %96 = load i32, ptr %12, align 4
  %97 = call ptr (ptr, ptr, ptr, ptr, i32, i32, ptr, ...) @proto_tree_add_expert_format(ptr noundef %93, ptr noundef %94, ptr noundef @ei_knxip_error, ptr noundef %95, i32 noundef %96, i32 noundef 0, ptr noundef @.str.408)
  store i8 0, ptr %11, align 1
  br label %105

98:                                               ; preds = %88
  %99 = load ptr, ptr %9, align 8
  %100 = load ptr, ptr %6, align 8
  %101 = load i32, ptr %12, align 4
  %102 = add i32 %101, 1
  %103 = load ptr, ptr %7, align 8
  %104 = call ptr @knxip_tree_add_reserved(ptr noundef %99, ptr noundef %100, i32 noundef %102, ptr noundef %103, ptr noundef %11)
  br label %105

105:                                              ; preds = %98, %92
  br label %106

106:                                              ; preds = %105, %67
  %107 = load ptr, ptr %7, align 8
  %108 = icmp ne ptr %107, null
  br i1 %108, label %109, label %114

109:                                              ; preds = %106
  %110 = load ptr, ptr %7, align 8
  %111 = getelementptr inbounds nuw %struct._packet_info, ptr %110, i32 0, i32 1
  %112 = load ptr, ptr %111, align 8
  %113 = load ptr, ptr %17, align 8
  call void (ptr, i32, ptr, ...) @col_append_fstr(ptr noundef %112, i32 noundef 25, ptr noundef @.str.253, ptr noundef %113)
  br label %114

114:                                              ; preds = %109, %106
  %115 = load ptr, ptr %8, align 8
  %116 = load ptr, ptr %17, align 8
  call void (ptr, ptr, ...) @proto_item_append_text(ptr noundef %115, ptr noundef @.str.253, ptr noundef %116)
  %117 = load i8, ptr %14, align 1
  %118 = zext i8 %117 to i32
  %119 = load ptr, ptr %10, align 8
  %120 = load i32, ptr %119, align 4
  %121 = add i32 %120, %118
  store i32 %121, ptr %119, align 4
  %122 = load i8, ptr %11, align 1
  call void @llvm.lifetime.end.p0(i64 8, ptr %18) #9
  call void @llvm.lifetime.end.p0(i64 8, ptr %17) #9
  call void @llvm.lifetime.end.p0(i64 8, ptr %16) #9
  call void @llvm.lifetime.end.p0(i64 1, ptr %15) #9
  call void @llvm.lifetime.end.p0(i64 1, ptr %14) #9
  call void @llvm.lifetime.end.p0(i64 4, ptr %13) #9
  call void @llvm.lifetime.end.p0(i64 4, ptr %12) #9
  call void @llvm.lifetime.end.p0(i64 1, ptr %11) #9
  ret i8 %122
}