; Function Attrs: null_pointer_is_valid sspstrong uwtable
define internal fastcc zeroext range(i8 0, 2) i8 @dissect_resetter(ptr noundef %0, ptr noundef %1, ptr noundef %2, ptr noundef %3, ptr noundef captures(none) %4) unnamed_addr #0 {
  %6 = load i32, ptr %4, align 4
  %7 = tail call i32 @tvb_captured_length_remaining(ptr noundef %0, i32 noundef %6)
  %8 = icmp eq i32 %7, 0
  br i1 %8, label %15, label %9

9:                                                ; preds = %5
  %10 = tail call zeroext i8 @tvb_get_uint8(ptr noundef %0, i32 noundef %6)
  %.fr = freeze i8 %10
  %.not = icmp eq i8 %.fr, 1
  %.not52 = icmp eq i8 %.fr, 2
  %.str.439. = select i1 %.not52, ptr @.str.439, ptr null
  %11 = add i8 %.fr, -3
  %spec.select = icmp ult i8 %11, -2
  %spec.select51 = select i1 %.not, ptr @.str.438, ptr %.str.439.
  %12 = select i1 %spec.select, ptr @.str.266, ptr %spec.select51
  %13 = load i32, ptr @hf_knxip_reset_command, align 4
  %14 = tail call ptr @proto_tree_add_item(ptr noundef %3, i32 noundef %13, ptr noundef %0, i32 noundef %6, i32 noundef 1, i32 noundef 0)
  tail call void (ptr, ptr, ...) @proto_item_append_text(ptr noundef %14, ptr noundef nonnull @.str.332, ptr noundef nonnull %12)
  br i1 %spec.select, label %17, label %19

15:                                               ; preds = %5
  %16 = tail call ptr (ptr, ptr, ptr, ptr, i32, i32, ptr, ...) @proto_tree_add_expert_format(ptr noundef %3, ptr noundef %1, ptr noundef nonnull @ei_knxip_error, ptr noundef %0, i32 noundef %6, i32 noundef 0, ptr noundef nonnull @.str.440)
  br label %knxip_tree_add_reserved.exit

17:                                               ; preds = %9
  %18 = tail call ptr (ptr, ptr, ptr, ptr, ...) @expert_add_info_format(ptr noundef %1, ptr noundef %14, ptr noundef nonnull @ei_knxip_error, ptr noundef nonnull @.str.317)
  br label %19

19:                                               ; preds = %9, %17
  %.1 = phi i8 [ 0, %17 ], [ 1, %9 ]
  %.not41.not = icmp eq i32 %7, 1
  br i1 %.not41.not, label %20, label %22

20:                                               ; preds = %19
  %21 = tail call ptr (ptr, ptr, ptr, ptr, i32, i32, ptr, ...) @proto_tree_add_expert_format(ptr noundef %3, ptr noundef %1, ptr noundef nonnull @ei_knxip_error, ptr noundef %0, i32 noundef %6, i32 noundef 0, ptr noundef nonnull @.str.408)
  br label %knxip_tree_add_reserved.exit

22:                                               ; preds = %19
  %23 = add i32 %6, 1
  %24 = load i32, ptr @hf_knxip_reserved, align 4
  %25 = tail call ptr @proto_tree_add_item(ptr noundef %3, i32 noundef %24, ptr noundef %0, i32 noundef %23, i32 noundef 1, i32 noundef 0)
  %26 = tail call zeroext i8 @tvb_get_uint8(ptr noundef %0, i32 noundef %23)
  %.not.i = icmp eq i8 %26, 0
  br i1 %.not.i, label %knxip_tree_add_reserved.exit, label %27

27:                                               ; preds = %22
  tail call void (ptr, ptr, ...) @proto_item_prepend_text(ptr noundef %25, ptr noundef nonnull @.str.231)
  %28 = tail call ptr (ptr, ptr, ptr, ptr, ...) @expert_add_info_format(ptr noundef %1, ptr noundef %25, ptr noundef nonnull @ei_knxip_error, ptr noundef nonnull @.str.409)
  br label %knxip_tree_add_reserved.exit

knxip_tree_add_reserved.exit:                     ; preds = %27, %22, %20, %15
  %29 = phi ptr [ @.str.266, %15 ], [ %12, %20 ], [ %12, %22 ], [ %12, %27 ]
  %.0 = phi i8 [ 0, %15 ], [ 0, %20 ], [ %.1, %22 ], [ 0, %27 ]
  %.not42 = icmp eq ptr %1, null
  br i1 %.not42, label %33, label %30

30:                                               ; preds = %knxip_tree_add_reserved.exit
  %31 = getelementptr inbounds nuw i8, ptr %1, i64 8
  %32 = load ptr, ptr %31, align 8
  tail call void (ptr, i32, ptr, ...) @col_append_fstr(ptr noundef %32, i32 noundef 25, ptr noundef nonnull @.str.253, ptr noundef nonnull %29)
  br label %33

33:                                               ; preds = %30, %knxip_tree_add_reserved.exit
  %34 = tail call i32 @llvm.umin.i32(i32 %7, i32 2)
  tail call void (ptr, ptr, ...) @proto_item_append_text(ptr noundef %2, ptr noundef nonnull @.str.253, ptr noundef nonnull %29)
  %35 = load i32, ptr %4, align 4
  %36 = add i32 %35, %34
  store i32 %36, ptr %4, align 4
  ret i8 %.0
}